; Function Attrs: nounwind uwtable
define void @cvRestore(ptr noundef captures(none) initializes((360, 368)) %0, double noundef %1) local_unnamed_addr #0 {
  %3 = getelementptr inbounds nuw i8, ptr %0, i64 360
  store double %1, ptr %3, align 8, !tbaa !81
  %4 = getelementptr inbounds nuw i8, ptr %0, i64 288
  %5 = load i32, ptr %4, align 8, !tbaa !83
  %.not18 = icmp slt i32 %5, 1
  br i1 %.not18, label %._crit_edge, label %.preheader.lr.ph

.preheader.lr.ph:                                 ; preds = %2
  %6 = getelementptr inbounds nuw i8, ptr %0, i64 96
  br label %.preheader

.preheader:                                       ; preds = %.preheader.lr.ph, %14
  %indvars.iv21 = phi i64 [ 1, %.preheader.lr.ph ], [ %indvars.iv.next22, %14 ]
  %7 = phi i32 [ %5, %.preheader.lr.ph ], [ %15, %14 ]
  %8 = sext i32 %7 to i64
  br label %9

9:                                                ; preds = %.preheader, %9
  %indvars.iv = phi i64 [ %8, %.preheader ], [ %indvars.iv.next, %9 ]
  %indvars.iv.next = add nsw i64 %indvars.iv, -1
  %10 = getelementptr inbounds [13 x ptr], ptr %6, i64 0, i64 %indvars.iv.next
  %11 = load ptr, ptr %10, align 8, !tbaa !79
  %12 = getelementptr inbounds [13 x ptr], ptr %6, i64 0, i64 %indvars.iv
  %13 = load ptr, ptr %12, align 8, !tbaa !79
  tail call void @N_VLinearSum(double noundef 1.000000e+00, ptr noundef %11, double noundef -1.000000e+00, ptr noundef %13, ptr noundef %11) #13
  %.not16.not = icmp sgt i64 %indvars.iv, %indvars.iv21
  br i1 %.not16.not, label %9, label %14

14:                                               ; preds = %9
  %indvars.iv.next22 = add nuw nsw i64 %indvars.iv21, 1
  %15 = load i32, ptr %4, align 8, !tbaa !83
  %16 = sext i32 %15 to i64
  %.not.not = icmp slt i64 %indvars.iv21, %16
  br i1 %.not.not, label %.preheader, label %._crit_edge

._crit_edge:                                      ; preds = %14, %2
  ret void
}